target datalayout = "e-m:e-p270:32:32-p271:32:32-p272:64:64-i64:64-i128:128-f80:128-n8:16:32:64-S128"
target triple = "x86_64-pc-linux-gnu"

%struct.ml_dsa_keygen_test_data_st = type { ptr, ptr, i64, ptr, i64, ptr, i64 }

@.str.12 = private unnamed_addr constant [5 x i8] c"seed\00", align 1
@.str.29 = private unnamed_addr constant [30 x i8] c"../openssl/test/ml_dsa_test.c\00", align 1
@.str.30 = private unnamed_addr constant [55 x i8] c"pkey = do_gen_key(tst->name, tst->seed, tst->seed_len)\00", align 1
@.str.31 = private unnamed_addr constant [98 x i8] c"EVP_PKEY_get_octet_string_param(pkey, OSSL_PKEY_PARAM_ML_DSA_SEED, seed, sizeof(seed), &seed_len)\00", align 1
@.str.32 = private unnamed_addr constant [95 x i8] c"EVP_PKEY_get_octet_string_param(pkey, OSSL_PKEY_PARAM_PRIV_KEY, priv, sizeof(priv), &priv_len)\00", align 1
@.str.33 = private unnamed_addr constant [5 x i8] c"priv\00", align 1
@.str.34 = private unnamed_addr constant [91 x i8] c"EVP_PKEY_get_octet_string_param(pkey, OSSL_PKEY_PARAM_PUB_KEY, pub, sizeof(pub), &pub_len)\00", align 1
@.str.35 = private unnamed_addr constant [4 x i8] c"pub\00", align 1
@.str.36 = private unnamed_addr constant [9 x i8] c"tst->pub\00", align 1
@.str.37 = private unnamed_addr constant [10 x i8] c"tst->priv\00", align 1
@.str.38 = private unnamed_addr constant [10 x i8] c"tst->seed\00", align 1

; Function Attrs: nounwind uwtable
define internal i32 @ml_dsa_keygen_test(i32 noundef %0) #0 {
  %2 = alloca i32, align 4
  %3 = alloca i32, align 4
  %4 = alloca ptr, align 8
  %5 = alloca ptr, align 8
  %6 = alloca [5120 x i8], align 16
  %7 = alloca [3072 x i8], align 16
  %8 = alloca [32 x i8], align 16
  %9 = alloca i64, align 8
  %10 = alloca i64, align 8
  %11 = alloca i64, align 8
  store i32 %0, ptr %2, align 4, !tbaa !9
  call void @llvm.lifetime.start.p0(i64 4, ptr %3) #4
  store i32 0, ptr %3, align 4, !tbaa !9
  call void @llvm.lifetime.start.p0(i64 8, ptr %4) #4
  %12 = load i32, ptr %2, align 4, !tbaa !9
  %13 = sext i32 %12 to i64
  %14 = getelementptr inbounds [2 x %struct.ml_dsa_keygen_test_data_st], ptr @ml_dsa_keygen_testdata, i64 0, i64 %13
  store ptr %14, ptr %4, align 8, !tbaa !13
  call void @llvm.lifetime.start.p0(i64 8, ptr %5) #4
  store ptr null, ptr %5, align 8, !tbaa !15
  call void @llvm.lifetime.start.p0(i64 5120, ptr %6) #4
  call void @llvm.lifetime.start.p0(i64 3072, ptr %7) #4
  call void @llvm.lifetime.start.p0(i64 32, ptr %8) #4
  call void @llvm.lifetime.start.p0(i64 8, ptr %9) #4
  call void @llvm.lifetime.start.p0(i64 8, ptr %10) #4
  call void @llvm.lifetime.start.p0(i64 8, ptr %11) #4
  %15 = load ptr, ptr %4, align 8, !tbaa !13
  %16 = getelementptr inbounds nuw %struct.ml_dsa_keygen_test_data_st, ptr %15, i32 0, i32 0
  %17 = load ptr, ptr %16, align 8, !tbaa !17
  %18 = load ptr, ptr %4, align 8, !tbaa !13
  %19 = getelementptr inbounds nuw %struct.ml_dsa_keygen_test_data_st, ptr %18, i32 0, i32 1
  %20 = load ptr, ptr %19, align 8, !tbaa !20
  %21 = load ptr, ptr %4, align 8, !tbaa !13
  %22 = getelementptr inbounds nuw %struct.ml_dsa_keygen_test_data_st, ptr %21, i32 0, i32 2
  %23 = load i64, ptr %22, align 8, !tbaa !21
  %24 = call ptr @do_gen_key(ptr noundef %17, ptr noundef %20, i64 noundef %23)
  store ptr %24, ptr %5, align 8, !tbaa !15
  %25 = call i32 @test_ptr(ptr noundef @.str.29, i32 noundef 93, ptr noundef @.str.30, ptr noundef %24)
  %26 = icmp ne i32 %25, 0
  br i1 %26, label %27, label %84

27:                                               ; preds = %1
  %28 = load ptr, ptr %5, align 8, !tbaa !15
  %29 = getelementptr inbounds [32 x i8], ptr %8, i64 0, i64 0
  %30 = call i32 @EVP_PKEY_get_octet_string_param(ptr noundef %28, ptr noundef @.str.12, ptr noundef %29, i64 noundef 32, ptr noundef %11)
  %31 = icmp ne i32 %30, 0
  %32 = zext i1 %31 to i32
  %33 = call i32 @test_true(ptr noundef @.str.29, i32 noundef 95, ptr noundef @.str.31, i32 noundef %32)
  %34 = icmp ne i32 %33, 0
  br i1 %34, label %35, label %84

35:                                               ; preds = %27
  %36 = load ptr, ptr %5, align 8, !tbaa !15
  %37 = getelementptr inbounds [5120 x i8], ptr %6, i64 0, i64 0
  %38 = call i32 @EVP_PKEY_get_octet_string_param(ptr noundef %36, ptr noundef @.str.33, ptr noundef %37, i64 noundef 5120, ptr noundef %9)
  %39 = icmp ne i32 %38, 0
  %40 = zext i1 %39 to i32
  %41 = call i32 @test_true(ptr noundef @.str.29, i32 noundef 97, ptr noundef @.str.32, i32 noundef %40)
  %42 = icmp ne i32 %41, 0
  br i1 %42, label %43, label %84

43:                                               ; preds = %35
  %44 = load ptr, ptr %5, align 8, !tbaa !15
  %45 = getelementptr inbounds [3072 x i8], ptr %7, i64 0, i64 0
  %46 = call i32 @EVP_PKEY_get_octet_string_param(ptr noundef %44, ptr noundef @.str.35, ptr noundef %45, i64 noundef 3072, ptr noundef %10)
  %47 = icmp ne i32 %46, 0
  %48 = zext i1 %47 to i32
  %49 = call i32 @test_true(ptr noundef @.str.29, i32 noundef 99, ptr noundef @.str.34, i32 noundef %48)
  %50 = icmp ne i32 %49, 0
  br i1 %50, label %51, label %84

51:                                               ; preds = %43
  %52 = getelementptr inbounds [3072 x i8], ptr %7, i64 0, i64 0
  %53 = load i64, ptr %10, align 8, !tbaa !22
  %54 = load ptr, ptr %4, align 8, !tbaa !13
  %55 = getelementptr inbounds nuw %struct.ml_dsa_keygen_test_data_st, ptr %54, i32 0, i32 3
  %56 = load ptr, ptr %55, align 8, !tbaa !23
  %57 = load ptr, ptr %4, align 8, !tbaa !13
  %58 = getelementptr inbounds nuw %struct.ml_dsa_keygen_test_data_st, ptr %57, i32 0, i32 4
  %59 = load i64, ptr %58, align 8, !tbaa !24
  %60 = call i32 @test_mem_eq(ptr noundef @.str.29, i32 noundef 100, ptr noundef @.str.35, ptr noundef @.str.36, ptr noundef %52, i64 noundef %53, ptr noundef %56, i64 noundef %59)
  %61 = icmp ne i32 %60, 0
  br i1 %61, label %62, label %84

62:                                               ; preds = %51
  %63 = getelementptr inbounds [5120 x i8], ptr %6, i64 0, i64 0
  %64 = load i64, ptr %9, align 8, !tbaa !22
  %65 = load ptr, ptr %4, align 8, !tbaa !13
  %66 = getelementptr inbounds nuw %struct.ml_dsa_keygen_test_data_st, ptr %65, i32 0, i32 5
  %67 = load ptr, ptr %66, align 8, !tbaa !25
  %68 = load ptr, ptr %4, align 8, !tbaa !13
  %69 = getelementptr inbounds nuw %struct.ml_dsa_keygen_test_data_st, ptr %68, i32 0, i32 6
  %70 = load i64, ptr %69, align 8, !tbaa !26
  %71 = call i32 @test_mem_eq(ptr noundef @.str.29, i32 noundef 101, ptr noundef @.str.33, ptr noundef @.str.37, ptr noundef %63, i64 noundef %64, ptr noundef %67, i64 noundef %70)
  %72 = icmp ne i32 %71, 0
  br i1 %72, label %73, label %84

73:                                               ; preds = %62
  %74 = getelementptr inbounds [32 x i8], ptr %8, i64 0, i64 0
  %75 = load i64, ptr %11, align 8, !tbaa !22
  %76 = load ptr, ptr %4, align 8, !tbaa !13
  %77 = getelementptr inbounds nuw %struct.ml_dsa_keygen_test_data_st, ptr %76, i32 0, i32 1
  %78 = load ptr, ptr %77, align 8, !tbaa !20
  %79 = load ptr, ptr %4, align 8, !tbaa !13
  %80 = getelementptr inbounds nuw %struct.ml_dsa_keygen_test_data_st, ptr %79, i32 0, i32 2
  %81 = load i64, ptr %80, align 8, !tbaa !21
  %82 = call i32 @test_mem_eq(ptr noundef @.str.29, i32 noundef 102, ptr noundef @.str.12, ptr noundef @.str.38, ptr noundef %74, i64 noundef %75, ptr noundef %78, i64 noundef %81)
  %83 = icmp ne i32 %82, 0
  br i1 %83, label %85, label %84

84:                                               ; preds = %73, %62, %51, %43, %35, %27, %1
  br label %86

85:                                               ; preds = %73
  store i32 1, ptr %3, align 4, !tbaa !9
  br label %86

86:                                               ; preds = %85, %84
  %87 = load ptr, ptr %5, align 8, !tbaa !15
  call void @EVP_PKEY_free(ptr noundef %87)
  %88 = load i32, ptr %3, align 4, !tbaa !9
  call void @llvm.lifetime.end.p0(i64 8, ptr %11) #4
  call void @llvm.lifetime.end.p0(i64 8, ptr %10) #4
  call void @llvm.lifetime.end.p0(i64 8, ptr %9) #4
  call void @llvm.lifetime.end.p0(i64 32, ptr %8) #4
  call void @llvm.lifetime.end.p0(i64 3072, ptr %7) #4
  call void @llvm.lifetime.end.p0(i64 5120, ptr %6) #4
  call void @llvm.lifetime.end.p0(i64 8, ptr %5) #4
  call void @llvm.lifetime.end.p0(i64 8, ptr %4) #4
  call void @llvm.lifetime.end.p0(i64 4, ptr %3) #4
  ret i32 %88
}