; Function Attrs: nounwind uwtable
define internal range(i32 0, 2) i32 @ml_dsa_keygen_test(i32 noundef %0) #1 {
  %2 = alloca [5120 x i8], align 16
  %3 = alloca [3072 x i8], align 16
  %4 = alloca [32 x i8], align 16
  %5 = alloca i64, align 8
  %6 = alloca i64, align 8
  %7 = alloca i64, align 8
  %8 = sext i32 %0 to i64
  %9 = getelementptr inbounds [2 x %struct.ml_dsa_keygen_test_data_st], ptr @ml_dsa_keygen_testdata, i64 0, i64 %8
  call void @llvm.lifetime.start.p0(i64 5120, ptr nonnull %2) #5
  call void @llvm.lifetime.start.p0(i64 3072, ptr nonnull %3) #5
  call void @llvm.lifetime.start.p0(i64 32, ptr nonnull %4) #5
  call void @llvm.lifetime.start.p0(i64 8, ptr nonnull %5) #5
  call void @llvm.lifetime.start.p0(i64 8, ptr nonnull %6) #5
  call void @llvm.lifetime.start.p0(i64 8, ptr nonnull %7) #5
  %10 = getelementptr inbounds nuw i8, ptr %9, i64 8
  %11 = load ptr, ptr %10, align 8, !tbaa !6
  %12 = tail call fastcc ptr @do_gen_key(ptr noundef nonnull @.str.39, ptr noundef %11, i64 noundef 32)
  %13 = tail call i32 @test_ptr(ptr noundef nonnull @.str.29, i32 noundef 93, ptr noundef nonnull @.str.30, ptr noundef %12) #5
  %.not = icmp eq i32 %13, 0
  br i1 %.not, label %42, label %14

14:                                               ; preds = %1
  %15 = call i32 @EVP_PKEY_get_octet_string_param(ptr noundef %12, ptr noundef nonnull @.str.12, ptr noundef nonnull %4, i64 noundef 32, ptr noundef nonnull %7) #5
  %16 = icmp ne i32 %15, 0
  %17 = zext i1 %16 to i32
  %18 = call i32 @test_true(ptr noundef nonnull @.str.29, i32 noundef 95, ptr noundef nonnull @.str.31, i32 noundef %17) #5
  %.not14 = icmp eq i32 %18, 0
  br i1 %.not14, label %42, label %19

19:                                               ; preds = %14
  %20 = call i32 @EVP_PKEY_get_octet_string_param(ptr noundef %12, ptr noundef nonnull @.str.33, ptr noundef nonnull %2, i64 noundef 5120, ptr noundef nonnull %5) #5
  %21 = icmp ne i32 %20, 0
  %22 = zext i1 %21 to i32
  %23 = call i32 @test_true(ptr noundef nonnull @.str.29, i32 noundef 97, ptr noundef nonnull @.str.32, i32 noundef %22) #5
  %.not15 = icmp eq i32 %23, 0
  br i1 %.not15, label %42, label %24

24:                                               ; preds = %19
  %25 = call i32 @EVP_PKEY_get_octet_string_param(ptr noundef %12, ptr noundef nonnull @.str.35, ptr noundef nonnull %3, i64 noundef 3072, ptr noundef nonnull %6) #5
  %26 = icmp ne i32 %25, 0
  %27 = zext i1 %26 to i32
  %28 = call i32 @test_true(ptr noundef nonnull @.str.29, i32 noundef 99, ptr noundef nonnull @.str.34, i32 noundef %27) #5
  %.not16 = icmp eq i32 %28, 0
  br i1 %.not16, label %42, label %29

29:                                               ; preds = %24
  %30 = load i64, ptr %6, align 8, !tbaa !13
  %31 = getelementptr inbounds nuw i8, ptr %9, i64 24
  %32 = load ptr, ptr %31, align 8, !tbaa !14
  %33 = call i32 @test_mem_eq(ptr noundef nonnull @.str.29, i32 noundef 100, ptr noundef nonnull @.str.35, ptr noundef nonnull @.str.36, ptr noundef nonnull %3, i64 noundef %30, ptr noundef %32, i64 noundef 1952) #5
  %.not17 = icmp eq i32 %33, 0
  br i1 %.not17, label %42, label %34

34:                                               ; preds = %29
  %35 = load i64, ptr %5, align 8, !tbaa !13
  %36 = getelementptr inbounds nuw i8, ptr %9, i64 40
  %37 = load ptr, ptr %36, align 8, !tbaa !15
  %38 = call i32 @test_mem_eq(ptr noundef nonnull @.str.29, i32 noundef 101, ptr noundef nonnull @.str.33, ptr noundef nonnull @.str.37, ptr noundef nonnull %2, i64 noundef %35, ptr noundef %37, i64 noundef 4032) #5
  %.not18 = icmp eq i32 %38, 0
  br i1 %.not18, label %42, label %39

39:                                               ; preds = %34
  %40 = load i64, ptr %7, align 8, !tbaa !13
  %41 = call i32 @test_mem_eq(ptr noundef nonnull @.str.29, i32 noundef 102, ptr noundef nonnull @.str.12, ptr noundef nonnull @.str.38, ptr noundef nonnull %4, i64 noundef %40, ptr noundef %11, i64 noundef 32) #5
  %.not19 = icmp ne i32 %41, 0
  %spec.select = zext i1 %.not19 to i32
  br label %42

42:                                               ; preds = %39, %1, %14, %19, %24, %29, %34
  %.0 = phi i32 [ 0, %34 ], [ 0, %29 ], [ 0, %24 ], [ 0, %19 ], [ 0, %14 ], [ 0, %1 ], [ %spec.select, %39 ]
  call void @EVP_PKEY_free(ptr noundef %12) #5
  call void @llvm.lifetime.end.p0(i64 8, ptr nonnull %7) #5
  call void @llvm.lifetime.end.p0(i64 8, ptr nonnull %6) #5
  call void @llvm.lifetime.end.p0(i64 8, ptr nonnull %5) #5
  call void @llvm.lifetime.end.p0(i64 32, ptr nonnull %4) #5
  call void @llvm.lifetime.end.p0(i64 3072, ptr nonnull %3) #5
  call void @llvm.lifetime.end.p0(i64 5120, ptr nonnull %2) #5
  ret i32 %.0
}